target datalayout = "e-m:e-p270:32:32-p271:32:32-p272:64:64-i64:64-i128:128-f80:128-n8:16:32:64-S128"
target triple = "x86_64-pc-linux-gnu"

%struct.x509_st = type { ptr, ptr, ptr, i32, i32, ptr, %struct.crypto_ex_data_st, i64, i64, i64, i64, i64, i64, ptr, ptr, ptr, ptr, ptr, ptr, [20 x i8], ptr }
%struct.crypto_ex_data_st = type { ptr }

; Function Attrs: nounwind uwtable
define internal i32 @check_ca(ptr noundef %0) #0 {
  %2 = alloca i32, align 4
  %3 = alloca ptr, align 8
  store ptr %0, ptr %3, align 8, !tbaa !6
  %4 = load ptr, ptr %3, align 8, !tbaa !6
  %5 = getelementptr inbounds nuw %struct.x509_st, ptr %4, i32 0, i32 9
  %6 = load i64, ptr %5, align 8, !tbaa !13
  %7 = and i64 %6, 2
  %8 = icmp ne i64 %7, 0
  br i1 %8, label %9, label %16

9:                                                ; preds = %1
  %10 = load ptr, ptr %3, align 8, !tbaa !6
  %11 = getelementptr inbounds nuw %struct.x509_st, ptr %10, i32 0, i32 10
  %12 = load i64, ptr %11, align 8, !tbaa !58
  %13 = and i64 %12, 4
  %14 = icmp ne i64 %13, 0
  br i1 %14, label %16, label %15

15:                                               ; preds = %9
  store i32 0, ptr %2, align 4
  br label %60

16:                                               ; preds = %9, %1
  %17 = load ptr, ptr %3, align 8, !tbaa !6
  %18 = getelementptr inbounds nuw %struct.x509_st, ptr %17, i32 0, i32 9
  %19 = load i64, ptr %18, align 8, !tbaa !13
  %20 = and i64 %19, 1
  %21 = icmp ne i64 %20, 0
  br i1 %21, label %22, label %30

22:                                               ; preds = %16
  %23 = load ptr, ptr %3, align 8, !tbaa !6
  %24 = getelementptr inbounds nuw %struct.x509_st, ptr %23, i32 0, i32 9
  %25 = load i64, ptr %24, align 8, !tbaa !13
  %26 = and i64 %25, 16
  %27 = icmp ne i64 %26, 0
  br i1 %27, label %28, label %29

28:                                               ; preds = %22
  store i32 1, ptr %2, align 4
  br label %60

29:                                               ; preds = %22
  store i32 0, ptr %2, align 4
  br label %60

30:                                               ; preds = %16
  %31 = load ptr, ptr %3, align 8, !tbaa !6
  %32 = getelementptr inbounds nuw %struct.x509_st, ptr %31, i32 0, i32 9
  %33 = load i64, ptr %32, align 8, !tbaa !13
  %34 = and i64 %33, 8256
  %35 = icmp eq i64 %34, 8256
  br i1 %35, label %36, label %37

36:                                               ; preds = %30
  store i32 3, ptr %2, align 4
  br label %60

37:                                               ; preds = %30
  %38 = load ptr, ptr %3, align 8, !tbaa !6
  %39 = getelementptr inbounds nuw %struct.x509_st, ptr %38, i32 0, i32 9
  %40 = load i64, ptr %39, align 8, !tbaa !13
  %41 = and i64 %40, 2
  %42 = icmp ne i64 %41, 0
  br i1 %42, label %43, label %44

43:                                               ; preds = %37
  store i32 4, ptr %2, align 4
  br label %60

44:                                               ; preds = %37
  %45 = load ptr, ptr %3, align 8, !tbaa !6
  %46 = getelementptr inbounds nuw %struct.x509_st, ptr %45, i32 0, i32 9
  %47 = load i64, ptr %46, align 8, !tbaa !13
  %48 = and i64 %47, 8
  %49 = icmp ne i64 %48, 0
  br i1 %49, label %50, label %57

50:                                               ; preds = %44
  %51 = load ptr, ptr %3, align 8, !tbaa !6
  %52 = getelementptr inbounds nuw %struct.x509_st, ptr %51, i32 0, i32 12
  %53 = load i64, ptr %52, align 8, !tbaa !65
  %54 = and i64 %53, 7
  %55 = icmp ne i64 %54, 0
  br i1 %55, label %56, label %57

56:                                               ; preds = %50
  store i32 5, ptr %2, align 4
  br label %60

57:                                               ; preds = %50, %44
  br label %58

58:                                               ; preds = %57
  br label %59

59:                                               ; preds = %58
  store i32 0, ptr %2, align 4
  br label %60

60:                                               ; preds = %59, %56, %43, %36, %29, %28, %15
  %61 = load i32, ptr %2, align 4
  ret i32 %61
}

; Function Attrs: nounwind uwtable
define internal i32 @check_purpose_timestamp_sign(ptr noundef %0, ptr noundef %1, i32 noundef %2) #0 {
  %4 = alloca i32, align 4
  %5 = alloca ptr, align 8
  %6 = alloca ptr, align 8
  %7 = alloca i32, align 4
  %8 = alloca i32, align 4
  %9 = alloca i32, align 4
  %10 = alloca ptr, align 8
  store ptr %0, ptr %5, align 8, !tbaa !28
  store ptr %1, ptr %6, align 8, !tbaa !6
  store i32 %2, ptr %7, align 4, !tbaa !11
  call void @llvm.lifetime.start.p0(i64 4, ptr %8) #7
  %11 = load i32, ptr %7, align 4, !tbaa !11
  %12 = icmp ne i32 %11, 0
  br i1 %12, label %13, label %16

13:                                               ; preds = %3
  %14 = load ptr, ptr %6, align 8, !tbaa !6
  %15 = call i32 @check_ca(ptr noundef %14)
  store i32 %15, ptr %4, align 4
  store i32 1, ptr %9, align 4
  br label %65

16:                                               ; preds = %3
  %17 = load ptr, ptr %6, align 8, !tbaa !6
  %18 = getelementptr inbounds nuw %struct.x509_st, ptr %17, i32 0, i32 9
  %19 = load i64, ptr %18, align 8, !tbaa !13
  %20 = and i64 %19, 2
  %21 = icmp ne i64 %20, 0
  br i1 %21, label %22, label %35

22:                                               ; preds = %16
  %23 = load ptr, ptr %6, align 8, !tbaa !6
  %24 = getelementptr inbounds nuw %struct.x509_st, ptr %23, i32 0, i32 10
  %25 = load i64, ptr %24, align 8, !tbaa !58
  %26 = and i64 %25, -193
  %27 = icmp ne i64 %26, 0
  br i1 %27, label %34, label %28

28:                                               ; preds = %22
  %29 = load ptr, ptr %6, align 8, !tbaa !6
  %30 = getelementptr inbounds nuw %struct.x509_st, ptr %29, i32 0, i32 10
  %31 = load i64, ptr %30, align 8, !tbaa !58
  %32 = and i64 %31, 192
  %33 = icmp ne i64 %32, 0
  br i1 %33, label %35, label %34

34:                                               ; preds = %28, %22
  store i32 0, ptr %4, align 4
  store i32 1, ptr %9, align 4
  br label %65

35:                                               ; preds = %28, %16
  %36 = load ptr, ptr %6, align 8, !tbaa !6
  %37 = getelementptr inbounds nuw %struct.x509_st, ptr %36, i32 0, i32 9
  %38 = load i64, ptr %37, align 8, !tbaa !13
  %39 = and i64 %38, 4
  %40 = icmp ne i64 %39, 0
  br i1 %40, label %41, label %46

41:                                               ; preds = %35
  %42 = load ptr, ptr %6, align 8, !tbaa !6
  %43 = getelementptr inbounds nuw %struct.x509_st, ptr %42, i32 0, i32 11
  %44 = load i64, ptr %43, align 8, !tbaa !59
  %45 = icmp ne i64 %44, 64
  br i1 %45, label %46, label %47

46:                                               ; preds = %41, %35
  store i32 0, ptr %4, align 4
  store i32 1, ptr %9, align 4
  br label %65

47:                                               ; preds = %41
  %48 = load ptr, ptr %6, align 8, !tbaa !6
  %49 = call i32 @X509_get_ext_by_NID(ptr noundef %48, i32 noundef 126, i32 noundef -1)
  store i32 %49, ptr %8, align 4, !tbaa !11
  %50 = load i32, ptr %8, align 4, !tbaa !11
  %51 = icmp sge i32 %50, 0
  br i1 %51, label %52, label %64

52:                                               ; preds = %47
  call void @llvm.lifetime.start.p0(i64 8, ptr %10) #7
  %53 = load ptr, ptr %6, align 8, !tbaa !6
  %54 = load i32, ptr %8, align 4, !tbaa !11
  %55 = call ptr @X509_get_ext(ptr noundef %53, i32 noundef %54)
  store ptr %55, ptr %10, align 8, !tbaa !70
  %56 = load ptr, ptr %10, align 8, !tbaa !70
  %57 = call i32 @X509_EXTENSION_get_critical(ptr noundef %56)
  %58 = icmp ne i32 %57, 0
  br i1 %58, label %60, label %59

59:                                               ; preds = %52
  store i32 0, ptr %4, align 4
  store i32 1, ptr %9, align 4
  br label %61

60:                                               ; preds = %52
  store i32 0, ptr %9, align 4
  br label %61

61:                                               ; preds = %60, %59
  call void @llvm.lifetime.end.p0(i64 8, ptr %10) #7
  %62 = load i32, ptr %9, align 4
  switch i32 %62, label %65 [
    i32 0, label %63
  ]

63:                                               ; preds = %61
  br label %64

64:                                               ; preds = %63, %47
  store i32 1, ptr %4, align 4
  store i32 1, ptr %9, align 4
  br label %65

65:                                               ; preds = %64, %61, %46, %34, %13
  call void @llvm.lifetime.end.p0(i64 4, ptr %8) #7
  %66 = load i32, ptr %4, align 4
  ret i32 %66
}