; Function Attrs: nounwind uwtable
define internal range(i32 0, 6) i32 @check_purpose_timestamp_sign(ptr readnone captures(none) %0, ptr noundef %1, i32 noundef %2) #0 {
  %.not = icmp eq i32 %2, 0
  %4 = getelementptr inbounds nuw i8, ptr %1, i64 64
  %5 = load i64, ptr %4, align 8, !tbaa !6
  %6 = and i64 %5, 2
  br i1 %.not, label %27, label %7

7:                                                ; preds = %3
  %.not.i = icmp ne i64 %6, 0
  br i1 %.not.i, label %8, label %12

8:                                                ; preds = %7
  %9 = getelementptr inbounds nuw i8, ptr %1, i64 72
  %10 = load i64, ptr %9, align 8, !tbaa !52
  %11 = and i64 %10, 4
  %.not8.i = icmp eq i64 %11, 0
  br i1 %.not8.i, label %check_ca.exit, label %12

12:                                               ; preds = %8, %7
  %13 = and i64 %5, 1
  %.not9.i = icmp eq i64 %13, 0
  br i1 %.not9.i, label %17, label %14

14:                                               ; preds = %12
  %15 = trunc i64 %5 to i32
  %16 = lshr i32 %15, 4
  %..i = and i32 %16, 1
  br label %check_ca.exit

17:                                               ; preds = %12
  %18 = and i64 %5, 8256
  %19 = icmp eq i64 %18, 8256
  %brmerge.i = or i1 %19, %.not.i
  %.mux.i = select i1 %19, i32 3, i32 4
  br i1 %brmerge.i, label %check_ca.exit, label %20

20:                                               ; preds = %17
  %21 = and i64 %5, 8
  %.not11.i = icmp eq i64 %21, 0
  br i1 %.not11.i, label %26, label %22

22:                                               ; preds = %20
  %23 = getelementptr inbounds nuw i8, ptr %1, i64 88
  %24 = load i64, ptr %23, align 8, !tbaa !56
  %25 = and i64 %24, 7
  %.not12.i = icmp eq i64 %25, 0
  br i1 %.not12.i, label %26, label %check_ca.exit

26:                                               ; preds = %22, %20
  br label %check_ca.exit

27:                                               ; preds = %3
  %.not15 = icmp eq i64 %6, 0
  br i1 %.not15, label %33, label %28

28:                                               ; preds = %27
  %29 = getelementptr inbounds nuw i8, ptr %1, i64 72
  %30 = load i64, ptr %29, align 8, !tbaa !52
  %31 = and i64 %30, -193
  %.not16 = icmp ne i64 %31, 0
  %.not17 = icmp eq i64 %30, 0
  %or.cond = or i1 %.not17, %.not16
  %32 = and i64 %5, 4
  %.not18 = icmp eq i64 %32, 0
  %or.cond21 = or i1 %.not18, %or.cond
  br i1 %or.cond21, label %check_ca.exit, label %34

33:                                               ; preds = %27
  %.old = and i64 %5, 4
  %.not18.old = icmp eq i64 %.old, 0
  br i1 %.not18.old, label %check_ca.exit, label %34

34:                                               ; preds = %28, %33
  %35 = getelementptr inbounds nuw i8, ptr %1, i64 80
  %36 = load i64, ptr %35, align 8, !tbaa !53
  %.not19 = icmp eq i64 %36, 64
  br i1 %.not19, label %37, label %check_ca.exit

37:                                               ; preds = %34
  %38 = tail call i32 @X509_get_ext_by_NID(ptr noundef nonnull %1, i32 noundef 126, i32 noundef -1) #10
  %39 = icmp sgt i32 %38, -1
  br i1 %39, label %40, label %43

40:                                               ; preds = %37
  %41 = tail call ptr @X509_get_ext(ptr noundef nonnull %1, i32 noundef %38) #10
  %42 = tail call i32 @X509_EXTENSION_get_critical(ptr noundef %41) #10
  %.not20.not = icmp eq i32 %42, 0
  br i1 %.not20.not, label %check_ca.exit, label %43

43:                                               ; preds = %40, %37
  br label %check_ca.exit

check_ca.exit:                                    ; preds = %26, %22, %17, %14, %8, %33, %34, %28, %40, %43
  %.0 = phi i32 [ 1, %43 ], [ 0, %40 ], [ 0, %28 ], [ 0, %34 ], [ 0, %33 ], [ 0, %26 ], [ 0, %8 ], [ %..i, %14 ], [ %.mux.i, %17 ], [ 5, %22 ]
  ret i32 %.0
}